(iavgbase
GameData
p1
(dp2
S'bg'
p3
Vbg7.jpg
p4
sS'bgm'
p5
Vharmony.mp3
p6
sS'st'
p7
I78
sS'peo'
p8
V
sS'txt'
p9
V\u9762\u5bf9\u8fd9\u6837\u4eb2\u5bc6\u7684\u629a\u6478\uff0c\u5e94\u8be5\uff1f
p10
sS'selects'
p11
(lp12
I0
aI1
aI2
aI0
aI0
aI0
aI0
aI0
aI0
aI0
aI0
asS'pl'
p13
I7
sb.